target datalayout = "e-m:e-p270:32:32-p271:32:32-p272:64:64-i64:64-i128:128-f80:128-n8:16:32:64-S128"
target triple = "x86_64-pc-linux-gnu"

%struct.H5Z_cb_t = type { ptr, ptr }
%struct.H5T_vlen_alloc_info_t = type { ptr, ptr, ptr, ptr }
%struct.H5T_conv_cb_t = type { ptr, ptr }
%struct.H5CX_fapl_cache_t = type { i32, i32 }
%struct.H5CX_node_t = type { %struct.H5CX_t, ptr }
%struct.H5CX_t = type { i64, ptr, i64, ptr, i64, ptr, i64, ptr, i64, ptr, i64, ptr, i64, i32, i64, i8, ptr, i8, ptr, i8, i32, i8, [3 x double], i8, i64, i8, i32, i8, %struct.H5Z_cb_t, i8, ptr, i8, %struct.H5T_vlen_alloc_info_t, i8, %struct.H5T_conv_cb_t, i8, i32, i8, i8, i8, i32, i8, i8, i32, i8, i8, i32, i8, i32, i8, i64, i8, i8, i8, i8, i8, ptr, i8, ptr, i8, i32, i8, i32, i8, %struct.H5VL_connector_prop_t, i8, ptr, i8 }
%struct.H5VL_connector_prop_t = type { i64, ptr }

@.str = private unnamed_addr constant [98 x i8] c"generated/home/dtcxzyw/WorkSpace/Projects/compilers/llvm-opt-benchmark/bench/hdf5/hdf5/src/H5CX.c\00", align 1
@H5E_CONTEXT_g = external global i64, align 8
@H5E_BADTYPE_g = external global i64, align 8
@H5E_CANTGET_g = external global i64, align 8
@H5CX_def_fapl_cache = internal global %struct.H5CX_fapl_cache_t zeroinitializer, align 4
@H5P_LST_FILE_ACCESS_ID_g = external global i64, align 8
@.str.52 = private unnamed_addr constant [17 x i8] c"libver_low_bound\00", align 1
@.str.53 = private unnamed_addr constant [18 x i8] c"libver_high_bound\00", align 1
@H5CX_head_g = internal global ptr null, align 8
@.str.56 = private unnamed_addr constant [24 x i8] c"can't get property list\00", align 1
@.str.75 = private unnamed_addr constant [38 x i8] c"can't retrieve value from API context\00", align 1
@__func__.H5CX_get_libver_bounds = private unnamed_addr constant [23 x i8] c"H5CX_get_libver_bounds\00", align 1

; Function Attrs: nounwind uwtable
define i32 @H5CX_get_libver_bounds(ptr noundef %0, ptr noundef %1) #0 {
  %3 = alloca ptr, align 8
  %4 = alloca ptr, align 8
  %5 = alloca ptr, align 8
  %6 = alloca i32, align 4
  %7 = alloca i8, align 1
  store ptr %0, ptr %3, align 8
  store ptr %1, ptr %4, align 8
  store ptr null, ptr %5, align 8
  store i32 0, ptr %6, align 4
  store i8 0, ptr %7, align 1
  store ptr @H5CX_head_g, ptr %5, align 8
  %8 = load ptr, ptr %5, align 8
  %9 = load ptr, ptr %8, align 8
  %10 = getelementptr inbounds %struct.H5CX_node_t, ptr %9, i32 0, i32 0
  %11 = getelementptr inbounds %struct.H5CX_t, ptr %10, i32 0, i32 61
  %12 = load i8, ptr %11, align 8
  %13 = trunc i8 %12 to i1
  br i1 %13, label %95, label %14

14:                                               ; preds = %2
  %15 = load ptr, ptr %5, align 8
  %16 = load ptr, ptr %15, align 8
  %17 = getelementptr inbounds %struct.H5CX_node_t, ptr %16, i32 0, i32 0
  %18 = getelementptr inbounds %struct.H5CX_t, ptr %17, i32 0, i32 10
  %19 = load i64, ptr %18, align 8
  %20 = load i64, ptr @H5P_LST_FILE_ACCESS_ID_g, align 8
  %21 = icmp eq i64 %19, %20
  br i1 %21, label %22, label %27

22:                                               ; preds = %14
  %23 = load ptr, ptr %5, align 8
  %24 = load ptr, ptr %23, align 8
  %25 = getelementptr inbounds %struct.H5CX_node_t, ptr %24, i32 0, i32 0
  %26 = getelementptr inbounds %struct.H5CX_t, ptr %25, i32 0, i32 60
  call void @llvm.memcpy.p0.p0.i64(ptr align 4 %26, ptr align 4 @H5CX_def_fapl_cache, i64 4, i1 false)
  br label %90

27:                                               ; preds = %14
  %28 = load ptr, ptr %5, align 8
  %29 = load ptr, ptr %28, align 8
  %30 = getelementptr inbounds %struct.H5CX_node_t, ptr %29, i32 0, i32 0
  %31 = getelementptr inbounds %struct.H5CX_t, ptr %30, i32 0, i32 11
  %32 = load ptr, ptr %31, align 8
  %33 = icmp eq ptr null, %32
  br i1 %33, label %34, label %62

34:                                               ; preds = %27
  %35 = load ptr, ptr %5, align 8
  %36 = load ptr, ptr %35, align 8
  %37 = getelementptr inbounds %struct.H5CX_node_t, ptr %36, i32 0, i32 0
  %38 = getelementptr inbounds %struct.H5CX_t, ptr %37, i32 0, i32 10
  %39 = load i64, ptr %38, align 8
  %40 = call ptr @H5I_object(i64 noundef %39)
  %41 = load ptr, ptr %5, align 8
  %42 = load ptr, ptr %41, align 8
  %43 = getelementptr inbounds %struct.H5CX_node_t, ptr %42, i32 0, i32 0
  %44 = getelementptr inbounds %struct.H5CX_t, ptr %43, i32 0, i32 11
  store ptr %40, ptr %44, align 8
  %45 = icmp eq ptr null, %40
  br i1 %45, label %46, label %61

46:                                               ; preds = %34
  br label %47

47:                                               ; preds = %46
  br label %48

48:                                               ; preds = %47
  br label %49

49:                                               ; preds = %48
  %50 = load i64, ptr @H5E_CONTEXT_g, align 8
  %51 = load i64, ptr @H5E_BADTYPE_g, align 8
  %52 = call i32 (ptr, ptr, i32, i64, i64, ptr, ...) @H5E_printf_stack(ptr noundef @.str, ptr noundef @__func__.H5CX_get_libver_bounds, i32 noundef 2745, i64 noundef %50, i64 noundef %51, ptr noundef @.str.56)
  br label %53

53:                                               ; preds = %49
  store i8 1, ptr %7, align 1
  %54 = load i8, ptr %7, align 1
  %55 = trunc i8 %54 to i1
  %56 = zext i1 %55 to i8
  store i8 %56, ptr %7, align 1
  br label %57

57:                                               ; preds = %53
  br label %58

58:                                               ; preds = %57
  store i32 -1, ptr %6, align 4
  br label %196

59:                                               ; No predecessors!
  br label %60

60:                                               ; preds = %59
  br label %61

61:                                               ; preds = %60, %34
  br label %62

62:                                               ; preds = %61, %27
  %63 = load ptr, ptr %5, align 8
  %64 = load ptr, ptr %63, align 8
  %65 = getelementptr inbounds %struct.H5CX_node_t, ptr %64, i32 0, i32 0
  %66 = getelementptr inbounds %struct.H5CX_t, ptr %65, i32 0, i32 11
  %67 = load ptr, ptr %66, align 8
  %68 = load ptr, ptr %5, align 8
  %69 = load ptr, ptr %68, align 8
  %70 = getelementptr inbounds %struct.H5CX_node_t, ptr %69, i32 0, i32 0
  %71 = getelementptr inbounds %struct.H5CX_t, ptr %70, i32 0, i32 60
  %72 = call i32 @H5P_get(ptr noundef %67, ptr noundef @.str.52, ptr noundef %71)
  %73 = icmp slt i32 %72, 0
  br i1 %73, label %74, label %89

74:                                               ; preds = %62
  br label %75

75:                                               ; preds = %74
  br label %76

76:                                               ; preds = %75
  br label %77

77:                                               ; preds = %76
  %78 = load i64, ptr @H5E_CONTEXT_g, align 8
  %79 = load i64, ptr @H5E_CANTGET_g, align 8
  %80 = call i32 (ptr, ptr, i32, i64, i64, ptr, ...) @H5E_printf_stack(ptr noundef @.str, ptr noundef @__func__.H5CX_get_libver_bounds, i32 noundef 2745, i64 noundef %78, i64 noundef %79, ptr noundef @.str.75)
  br label %81

81:                                               ; preds = %77
  store i8 1, ptr %7, align 1
  %82 = load i8, ptr %7, align 1
  %83 = trunc i8 %82 to i1
  %84 = zext i1 %83 to i8
  store i8 %84, ptr %7, align 1
  br label %85

85:                                               ; preds = %81
  br label %86

86:                                               ; preds = %85
  store i32 -1, ptr %6, align 4
  br label %196

87:                                               ; No predecessors!
  br label %88

88:                                               ; preds = %87
  br label %89

89:                                               ; preds = %88, %62
  br label %90

90:                                               ; preds = %89, %22
  %91 = load ptr, ptr %5, align 8
  %92 = load ptr, ptr %91, align 8
  %93 = getelementptr inbounds %struct.H5CX_node_t, ptr %92, i32 0, i32 0
  %94 = getelementptr inbounds %struct.H5CX_t, ptr %93, i32 0, i32 61
  store i8 1, ptr %94, align 8
  br label %95

95:                                               ; preds = %90, %2
  %96 = load ptr, ptr %5, align 8
  %97 = load ptr, ptr %96, align 8
  %98 = getelementptr inbounds %struct.H5CX_node_t, ptr %97, i32 0, i32 0
  %99 = getelementptr inbounds %struct.H5CX_t, ptr %98, i32 0, i32 63
  %100 = load i8, ptr %99, align 8
  %101 = trunc i8 %100 to i1
  br i1 %101, label %183, label %102

102:                                              ; preds = %95
  %103 = load ptr, ptr %5, align 8
  %104 = load ptr, ptr %103, align 8
  %105 = getelementptr inbounds %struct.H5CX_node_t, ptr %104, i32 0, i32 0
  %106 = getelementptr inbounds %struct.H5CX_t, ptr %105, i32 0, i32 10
  %107 = load i64, ptr %106, align 8
  %108 = load i64, ptr @H5P_LST_FILE_ACCESS_ID_g, align 8
  %109 = icmp eq i64 %107, %108
  br i1 %109, label %110, label %115

110:                                              ; preds = %102
  %111 = load ptr, ptr %5, align 8
  %112 = load ptr, ptr %111, align 8
  %113 = getelementptr inbounds %struct.H5CX_node_t, ptr %112, i32 0, i32 0
  %114 = getelementptr inbounds %struct.H5CX_t, ptr %113, i32 0, i32 62
  call void @llvm.memcpy.p0.p0.i64(ptr align 4 %114, ptr align 4 getelementptr inbounds (%struct.H5CX_fapl_cache_t, ptr @H5CX_def_fapl_cache, i32 0, i32 1), i64 4, i1 false)
  br label %178

115:                                              ; preds = %102
  %116 = load ptr, ptr %5, align 8
  %117 = load ptr, ptr %116, align 8
  %118 = getelementptr inbounds %struct.H5CX_node_t, ptr %117, i32 0, i32 0
  %119 = getelementptr inbounds %struct.H5CX_t, ptr %118, i32 0, i32 11
  %120 = load ptr, ptr %119, align 8
  %121 = icmp eq ptr null, %120
  br i1 %121, label %122, label %150

122:                                              ; preds = %115
  %123 = load ptr, ptr %5, align 8
  %124 = load ptr, ptr %123, align 8
  %125 = getelementptr inbounds %struct.H5CX_node_t, ptr %124, i32 0, i32 0
  %126 = getelementptr inbounds %struct.H5CX_t, ptr %125, i32 0, i32 10
  %127 = load i64, ptr %126, align 8
  %128 = call ptr @H5I_object(i64 noundef %127)
  %129 = load ptr, ptr %5, align 8
  %130 = load ptr, ptr %129, align 8
  %131 = getelementptr inbounds %struct.H5CX_node_t, ptr %130, i32 0, i32 0
  %132 = getelementptr inbounds %struct.H5CX_t, ptr %131, i32 0, i32 11
  store ptr %128, ptr %132, align 8
  %133 = icmp eq ptr null, %128
  br i1 %133, label %134, label %149

134:                                              ; preds = %122
  br label %135

135:                                              ; preds = %134
  br label %136

136:                                              ; preds = %135
  br label %137

137:                                              ; preds = %136
  %138 = load i64, ptr @H5E_CONTEXT_g, align 8
  %139 = load i64, ptr @H5E_BADTYPE_g, align 8
  %140 = call i32 (ptr, ptr, i32, i64, i64, ptr, ...) @H5E_printf_stack(ptr noundef @.str, ptr noundef @__func__.H5CX_get_libver_bounds, i32 noundef 2746, i64 noundef %138, i64 noundef %139, ptr noundef @.str.56)
  br label %141

141:                                              ; preds = %137
  store i8 1, ptr %7, align 1
  %142 = load i8, ptr %7, align 1
  %143 = trunc i8 %142 to i1
  %144 = zext i1 %143 to i8
  store i8 %144, ptr %7, align 1
  br label %145

145:                                              ; preds = %141
  br label %146

146:                                              ; preds = %145
  store i32 -1, ptr %6, align 4
  br label %196

147:                                              ; No predecessors!
  br label %148

148:                                              ; preds = %147
  br label %149

149:                                              ; preds = %148, %122
  br label %150

150:                                              ; preds = %149, %115
  %151 = load ptr, ptr %5, align 8
  %152 = load ptr, ptr %151, align 8
  %153 = getelementptr inbounds %struct.H5CX_node_t, ptr %152, i32 0, i32 0
  %154 = getelementptr inbounds %struct.H5CX_t, ptr %153, i32 0, i32 11
  %155 = load ptr, ptr %154, align 8
  %156 = load ptr, ptr %5, align 8
  %157 = load ptr, ptr %156, align 8
  %158 = getelementptr inbounds %struct.H5CX_node_t, ptr %157, i32 0, i32 0
  %159 = getelementptr inbounds %struct.H5CX_t, ptr %158, i32 0, i32 62
  %160 = call i32 @H5P_get(ptr noundef %155, ptr noundef @.str.53, ptr noundef %159)
  %161 = icmp slt i32 %160, 0
  br i1 %161, label %162, label %177

162:                                              ; preds = %150
  br label %163

163:                                              ; preds = %162
  br label %164

164:                                              ; preds = %163
  br label %165

165:                                              ; preds = %164
  %166 = load i64, ptr @H5E_CONTEXT_g, align 8
  %167 = load i64, ptr @H5E_CANTGET_g, align 8
  %168 = call i32 (ptr, ptr, i32, i64, i64, ptr, ...) @H5E_printf_stack(ptr noundef @.str, ptr noundef @__func__.H5CX_get_libver_bounds, i32 noundef 2746, i64 noundef %166, i64 noundef %167, ptr noundef @.str.75)
  br label %169

169:                                              ; preds = %165
  store i8 1, ptr %7, align 1
  %170 = load i8, ptr %7, align 1
  %171 = trunc i8 %170 to i1
  %172 = zext i1 %171 to i8
  store i8 %172, ptr %7, align 1
  br label %173

173:                                              ; preds = %169
  br label %174

174:                                              ; preds = %173
  store i32 -1, ptr %6, align 4
  br label %196

175:                                              ; No predecessors!
  br label %176

176:                                              ; preds = %175
  br label %177

177:                                              ; preds = %176, %150
  br label %178

178:                                              ; preds = %177, %110
  %179 = load ptr, ptr %5, align 8
  %180 = load ptr, ptr %179, align 8
  %181 = getelementptr inbounds %struct.H5CX_node_t, ptr %180, i32 0, i32 0
  %182 = getelementptr inbounds %struct.H5CX_t, ptr %181, i32 0, i32 63
  store i8 1, ptr %182, align 8
  br label %183

183:                                              ; preds = %178, %95
  %184 = load ptr, ptr %5, align 8
  %185 = load ptr, ptr %184, align 8
  %186 = getelementptr inbounds %struct.H5CX_node_t, ptr %185, i32 0, i32 0
  %187 = getelementptr inbounds %struct.H5CX_t, ptr %186, i32 0, i32 60
  %188 = load i32, ptr %187, align 4
  %189 = load ptr, ptr %3, align 8
  store i32 %188, ptr %189, align 4
  %190 = load ptr, ptr %5, align 8
  %191 = load ptr, ptr %190, align 8
  %192 = getelementptr inbounds %struct.H5CX_node_t, ptr %191, i32 0, i32 0
  %193 = getelementptr inbounds %struct.H5CX_t, ptr %192, i32 0, i32 62
  %194 = load i32, ptr %193, align 4
  %195 = load ptr, ptr %4, align 8
  store i32 %194, ptr %195, align 4
  br label %196

196:                                              ; preds = %183, %174, %146, %86, %58
  %197 = load i32, ptr %6, align 4
  ret i32 %197
}