; Function Attrs: nounwind uwtable
define range(i32 -1, 1) i32 @H5CX_get_libver_bounds(ptr nocapture noundef writeonly %0, ptr nocapture noundef writeonly %1) local_unnamed_addr #0 {
  %3 = load ptr, ptr @H5CX_head_g, align 8
  %4 = getelementptr inbounds i8, ptr %3, i64 416
  %5 = load i8, ptr %4, align 8
  %6 = trunc i8 %5 to i1
  br i1 %6, label %41, label %7

7:                                                ; preds = %2
  %8 = getelementptr inbounds i8, ptr %3, i64 80
  %9 = load i64, ptr %8, align 8
  %10 = load i64, ptr @H5P_LST_FILE_ACCESS_ID_g, align 8
  %11 = icmp eq i64 %9, %10
  br i1 %11, label %12, label %15

12:                                               ; preds = %7
  %13 = getelementptr inbounds i8, ptr %3, i64 412
  %14 = load i32, ptr @H5CX_def_fapl_cache, align 8
  store i32 %14, ptr %13, align 4
  br label %38

15:                                               ; preds = %7
  %16 = getelementptr inbounds i8, ptr %3, i64 88
  %17 = load ptr, ptr %16, align 8
  %18 = icmp eq ptr %17, null
  br i1 %18, label %19, label %28

19:                                               ; preds = %15
  %20 = tail call ptr @H5I_object(i64 noundef %9) #13
  %21 = load ptr, ptr @H5CX_head_g, align 8
  %22 = getelementptr inbounds i8, ptr %21, i64 88
  store ptr %20, ptr %22, align 8
  %23 = icmp eq ptr %20, null
  br i1 %23, label %24, label %28

24:                                               ; preds = %19
  %25 = load i64, ptr @H5E_CONTEXT_g, align 8
  %26 = load i64, ptr @H5E_BADTYPE_g, align 8
  %27 = tail call i32 (ptr, ptr, i32, i64, i64, ptr, ...) @H5E_printf_stack(ptr noundef nonnull @.str, ptr noundef nonnull @__func__.H5CX_get_libver_bounds, i32 noundef 2745, i64 noundef %25, i64 noundef %26, ptr noundef nonnull @.str.56) #13
  br label %86

28:                                               ; preds = %19, %15
  %29 = phi ptr [ %20, %19 ], [ %17, %15 ]
  %30 = phi ptr [ %21, %19 ], [ %3, %15 ]
  %31 = getelementptr inbounds i8, ptr %30, i64 412
  %32 = tail call i32 @H5P_get(ptr noundef nonnull %29, ptr noundef nonnull @.str.52, ptr noundef nonnull %31) #13
  %33 = icmp slt i32 %32, 0
  br i1 %33, label %34, label %._crit_edge

._crit_edge:                                      ; preds = %28
  %.pre = load ptr, ptr @H5CX_head_g, align 8
  br label %38

34:                                               ; preds = %28
  %35 = load i64, ptr @H5E_CONTEXT_g, align 8
  %36 = load i64, ptr @H5E_CANTGET_g, align 8
  %37 = tail call i32 (ptr, ptr, i32, i64, i64, ptr, ...) @H5E_printf_stack(ptr noundef nonnull @.str, ptr noundef nonnull @__func__.H5CX_get_libver_bounds, i32 noundef 2745, i64 noundef %35, i64 noundef %36, ptr noundef nonnull @.str.75) #13
  br label %86

38:                                               ; preds = %._crit_edge, %12
  %39 = phi ptr [ %.pre, %._crit_edge ], [ %3, %12 ]
  %40 = getelementptr inbounds i8, ptr %39, i64 416
  store i8 1, ptr %40, align 8
  br label %41

41:                                               ; preds = %38, %2
  %42 = phi ptr [ %39, %38 ], [ %3, %2 ]
  %43 = getelementptr inbounds i8, ptr %42, i64 424
  %44 = load i8, ptr %43, align 8
  %45 = trunc i8 %44 to i1
  br i1 %45, label %80, label %46

46:                                               ; preds = %41
  %47 = getelementptr inbounds i8, ptr %42, i64 80
  %48 = load i64, ptr %47, align 8
  %49 = load i64, ptr @H5P_LST_FILE_ACCESS_ID_g, align 8
  %50 = icmp eq i64 %48, %49
  br i1 %50, label %51, label %54

51:                                               ; preds = %46
  %52 = getelementptr inbounds i8, ptr %42, i64 420
  %53 = load i32, ptr getelementptr inbounds (i8, ptr @H5CX_def_fapl_cache, i64 4), align 4
  store i32 %53, ptr %52, align 4
  br label %77

54:                                               ; preds = %46
  %55 = getelementptr inbounds i8, ptr %42, i64 88
  %56 = load ptr, ptr %55, align 8
  %57 = icmp eq ptr %56, null
  br i1 %57, label %58, label %67

58:                                               ; preds = %54
  %59 = tail call ptr @H5I_object(i64 noundef %48) #13
  %60 = load ptr, ptr @H5CX_head_g, align 8
  %61 = getelementptr inbounds i8, ptr %60, i64 88
  store ptr %59, ptr %61, align 8
  %62 = icmp eq ptr %59, null
  br i1 %62, label %63, label %67

63:                                               ; preds = %58
  %64 = load i64, ptr @H5E_CONTEXT_g, align 8
  %65 = load i64, ptr @H5E_BADTYPE_g, align 8
  %66 = tail call i32 (ptr, ptr, i32, i64, i64, ptr, ...) @H5E_printf_stack(ptr noundef nonnull @.str, ptr noundef nonnull @__func__.H5CX_get_libver_bounds, i32 noundef 2746, i64 noundef %64, i64 noundef %65, ptr noundef nonnull @.str.56) #13
  br label %86

67:                                               ; preds = %58, %54
  %68 = phi ptr [ %59, %58 ], [ %56, %54 ]
  %69 = phi ptr [ %60, %58 ], [ %42, %54 ]
  %70 = getelementptr inbounds i8, ptr %69, i64 420
  %71 = tail call i32 @H5P_get(ptr noundef nonnull %68, ptr noundef nonnull @.str.53, ptr noundef nonnull %70) #13
  %72 = icmp slt i32 %71, 0
  br i1 %72, label %73, label %._crit_edge28

._crit_edge28:                                    ; preds = %67
  %.pre29 = load ptr, ptr @H5CX_head_g, align 8
  br label %77

73:                                               ; preds = %67
  %74 = load i64, ptr @H5E_CONTEXT_g, align 8
  %75 = load i64, ptr @H5E_CANTGET_g, align 8
  %76 = tail call i32 (ptr, ptr, i32, i64, i64, ptr, ...) @H5E_printf_stack(ptr noundef nonnull @.str, ptr noundef nonnull @__func__.H5CX_get_libver_bounds, i32 noundef 2746, i64 noundef %74, i64 noundef %75, ptr noundef nonnull @.str.75) #13
  br label %86

77:                                               ; preds = %._crit_edge28, %51
  %78 = phi ptr [ %.pre29, %._crit_edge28 ], [ %42, %51 ]
  %79 = getelementptr inbounds i8, ptr %78, i64 424
  store i8 1, ptr %79, align 8
  br label %80

80:                                               ; preds = %77, %41
  %81 = phi ptr [ %78, %77 ], [ %42, %41 ]
  %82 = getelementptr inbounds i8, ptr %81, i64 412
  %83 = load i32, ptr %82, align 4
  store i32 %83, ptr %0, align 4
  %84 = getelementptr inbounds i8, ptr %81, i64 420
  %85 = load i32, ptr %84, align 4
  store i32 %85, ptr %1, align 4
  br label %86

86:                                               ; preds = %80, %73, %63, %34, %24
  %.0 = phi i32 [ 0, %80 ], [ -1, %63 ], [ -1, %73 ], [ -1, %24 ], [ -1, %34 ]
  ret i32 %.0
}